target datalayout = "e-m:e-p270:32:32-p271:32:32-p272:64:64-i64:64-i128:128-f80:128-n8:16:32:64-S128"
target triple = "x86_64-pc-linux-gnu"

%struct.AVTextFormatSection = type { i32, ptr, i32, [12 x i32], ptr, ptr, ptr, ptr, i32, ptr, ptr, ptr, ptr }
%struct.AVRational = type { i32, i32 }
%struct.AVIAMFParamDefinition = type { ptr, i64, i64, i32, i32, i32, i32, i32, i32 }
%struct.AVIAMFMixGain = type { ptr, i32, i32, %struct.AVRational, %struct.AVRational, %struct.AVRational, %struct.AVRational }
%struct.AVIAMFDemixingInfo = type { ptr, i32, i32 }
%struct.AVIAMFReconGain = type { ptr, i32, [6 x [12 x i8]] }

@.str.175 = private unnamed_addr constant [30 x i8] c"Assertion %s failed at %s:%d\0A\00", align 1
@.str.177 = private unnamed_addr constant [18 x i8] c"fftools/ffprobe.c\00", align 1
@.str.285 = private unnamed_addr constant [5 x i8] c"name\00", align 1
@.str.339 = private unnamed_addr constant [9 x i8] c"duration\00", align 1
@.str.351 = private unnamed_addr constant [5 x i8] c"type\00", align 1
@.str.664 = private unnamed_addr constant [20 x i8] c"subsection_id != -1\00", align 1
@.str.665 = private unnamed_addr constant [27 x i8] c"parameter_section_id != -1\00", align 1
@.str.666 = private unnamed_addr constant [22 x i8] c"IAMF Param Definition\00", align 1
@.str.667 = private unnamed_addr constant [13 x i8] c"nb_subblocks\00", align 1
@.str.668 = private unnamed_addr constant [13 x i8] c"parameter_id\00", align 1
@.str.669 = private unnamed_addr constant [15 x i8] c"parameter_rate\00", align 1
@.str.670 = private unnamed_addr constant [27 x i8] c"constant_subblock_duration\00", align 1
@.str.671 = private unnamed_addr constant [25 x i8] c"IAMF Mix Gain Parameters\00", align 1
@.str.672 = private unnamed_addr constant [18 x i8] c"subblock_duration\00", align 1
@.str.673 = private unnamed_addr constant [15 x i8] c"animation_type\00", align 1
@.str.674 = private unnamed_addr constant [18 x i8] c"start_point_value\00", align 1
@.str.675 = private unnamed_addr constant [16 x i8] c"end_point_value\00", align 1
@.str.676 = private unnamed_addr constant [20 x i8] c"control_point_value\00", align 1
@.str.677 = private unnamed_addr constant [28 x i8] c"control_point_relative_time\00", align 1
@.str.678 = private unnamed_addr constant [19 x i8] c"IAMF Demixing Info\00", align 1
@.str.679 = private unnamed_addr constant [11 x i8] c"dmixp_mode\00", align 1
@.str.680 = private unnamed_addr constant [16 x i8] c"IAMF Recon Gain\00", align 1
@.str.681 = private unnamed_addr constant [24 x i8] c"idx < par->nb_subblocks\00", align 1
@.str.682 = private unnamed_addr constant [19 x i8] c"./libavutil/iamf.h\00", align 1

; Function Attrs: alwaysinline nounwind uwtable
define internal ptr @av_iamf_param_definition_get_subblock(ptr noundef %0, i32 noundef %1) #12 {
  %3 = alloca ptr, align 8
  %4 = alloca i32, align 4
  store ptr %0, ptr %3, align 8, !tbaa !660
  store i32 %1, ptr %4, align 4, !tbaa !11
  br label %5

5:                                                ; preds = %2
  %6 = load i32, ptr %4, align 4, !tbaa !11
  %7 = load ptr, ptr %3, align 8, !tbaa !660
  %8 = getelementptr inbounds nuw %struct.AVIAMFParamDefinition, ptr %7, i32 0, i32 3
  %9 = load i32, ptr %8, align 8, !tbaa !661
  %10 = icmp ult i32 %6, %9
  br i1 %10, label %12, label %11

11:                                               ; preds = %5
  call void (ptr, i32, ptr, ...) @av_log(ptr noundef null, i32 noundef 0, ptr noundef @.str.175, ptr noundef @.str.681, ptr noundef @.str.682, i32 noundef 262)
  call void @abort() #16
  unreachable

12:                                               ; preds = %5
  br label %13

13:                                               ; preds = %12
  %14 = load ptr, ptr %3, align 8, !tbaa !660
  %15 = load ptr, ptr %3, align 8, !tbaa !660
  %16 = getelementptr inbounds nuw %struct.AVIAMFParamDefinition, ptr %15, i32 0, i32 1
  %17 = load i64, ptr %16, align 8, !tbaa !683
  %18 = getelementptr inbounds nuw i8, ptr %14, i64 %17
  %19 = load i32, ptr %4, align 4, !tbaa !11
  %20 = zext i32 %19 to i64
  %21 = load ptr, ptr %3, align 8, !tbaa !660
  %22 = getelementptr inbounds nuw %struct.AVIAMFParamDefinition, ptr %21, i32 0, i32 2
  %23 = load i64, ptr %22, align 8, !tbaa !684
  %24 = mul i64 %20, %23
  %25 = getelementptr inbounds nuw i8, ptr %18, i64 %24
  ret ptr %25
}

; Function Attrs: nounwind uwtable
define internal void @print_iamf_param_definition(ptr noundef %0, ptr noundef %1, ptr noundef %2, i32 noundef %3) #0 {
  %5 = alloca ptr, align 8
  %6 = alloca ptr, align 8
  %7 = alloca ptr, align 8
  %8 = alloca i32, align 4
  %9 = alloca i32, align 4
  %10 = alloca i32, align 4
  %11 = alloca i32, align 4
  %12 = alloca i32, align 4
  %13 = alloca ptr, align 8
  %14 = alloca ptr, align 8
  %15 = alloca ptr, align 8
  %16 = alloca ptr, align 8
  store ptr %0, ptr %5, align 8, !tbaa !28
  store ptr %1, ptr %6, align 8, !tbaa !4
  store ptr %2, ptr %7, align 8, !tbaa !660
  store i32 %3, ptr %8, align 4, !tbaa !11
  call void @llvm.lifetime.start.p0(i64 4, ptr %9) #14
  call void @llvm.lifetime.start.p0(i64 4, ptr %10) #14
  %17 = load i32, ptr %8, align 4, !tbaa !11
  %18 = zext i32 %17 to i64
  %19 = getelementptr inbounds nuw [66 x %struct.AVTextFormatSection], ptr @sections, i64 0, i64 %18
  %20 = getelementptr inbounds nuw %struct.AVTextFormatSection, ptr %19, i32 0, i32 3
  %21 = getelementptr inbounds [12 x i32], ptr %20, i64 0, i64 0
  %22 = load i32, ptr %21, align 4, !tbaa !11
  store i32 %22, ptr %9, align 4, !tbaa !11
  br label %23

23:                                               ; preds = %4
  %24 = load i32, ptr %9, align 4, !tbaa !11
  %25 = icmp ne i32 %24, -1
  br i1 %25, label %27, label %26

26:                                               ; preds = %23
  call void (ptr, i32, ptr, ...) @av_log(ptr noundef null, i32 noundef 0, ptr noundef @.str.175, ptr noundef @.str.664, ptr noundef @.str.177, i32 noundef 2012)
  call void @abort() #16
  unreachable

27:                                               ; preds = %23
  br label %28

28:                                               ; preds = %27
  br label %29

29:                                               ; preds = %28
  %30 = load i32, ptr %9, align 4, !tbaa !11
  %31 = zext i32 %30 to i64
  %32 = getelementptr inbounds nuw [66 x %struct.AVTextFormatSection], ptr @sections, i64 0, i64 %31
  %33 = getelementptr inbounds nuw %struct.AVTextFormatSection, ptr %32, i32 0, i32 3
  %34 = getelementptr inbounds [12 x i32], ptr %33, i64 0, i64 0
  %35 = load i32, ptr %34, align 4, !tbaa !11
  store i32 %35, ptr %10, align 4, !tbaa !11
  br label %36

36:                                               ; preds = %29
  %37 = load i32, ptr %10, align 4, !tbaa !11
  %38 = icmp ne i32 %37, -1
  br i1 %38, label %40, label %39

39:                                               ; preds = %36
  call void (ptr, i32, ptr, ...) @av_log(ptr noundef null, i32 noundef 0, ptr noundef @.str.175, ptr noundef @.str.665, ptr noundef @.str.177, i32 noundef 2014)
  call void @abort() #16
  unreachable

40:                                               ; preds = %36
  br label %41

41:                                               ; preds = %40
  br label %42

42:                                               ; preds = %41
  %43 = load ptr, ptr %5, align 8, !tbaa !28
  %44 = load i32, ptr %8, align 4, !tbaa !11
  call void @avtext_print_section_header(ptr noundef %43, ptr noundef @.str.666, i32 noundef %44)
  %45 = load ptr, ptr %5, align 8, !tbaa !28
  %46 = load ptr, ptr %6, align 8, !tbaa !4
  %47 = call i32 @avtext_print_string(ptr noundef %45, ptr noundef @.str.285, ptr noundef %46, i32 noundef 0)
  %48 = load ptr, ptr %5, align 8, !tbaa !28
  %49 = load ptr, ptr %7, align 8, !tbaa !660
  %50 = getelementptr inbounds nuw %struct.AVIAMFParamDefinition, ptr %49, i32 0, i32 3
  %51 = load i32, ptr %50, align 8, !tbaa !661
  %52 = zext i32 %51 to i64
  call void @avtext_print_integer(ptr noundef %48, ptr noundef @.str.667, i64 noundef %52, i32 noundef 0)
  %53 = load ptr, ptr %5, align 8, !tbaa !28
  %54 = load ptr, ptr %7, align 8, !tbaa !660
  %55 = getelementptr inbounds nuw %struct.AVIAMFParamDefinition, ptr %54, i32 0, i32 4
  %56 = load i32, ptr %55, align 4, !tbaa !663
  %57 = zext i32 %56 to i64
  call void @avtext_print_integer(ptr noundef %53, ptr noundef @.str.351, i64 noundef %57, i32 noundef 0)
  %58 = load ptr, ptr %5, align 8, !tbaa !28
  %59 = load ptr, ptr %7, align 8, !tbaa !660
  %60 = getelementptr inbounds nuw %struct.AVIAMFParamDefinition, ptr %59, i32 0, i32 5
  %61 = load i32, ptr %60, align 8, !tbaa !664
  %62 = zext i32 %61 to i64
  call void @avtext_print_integer(ptr noundef %58, ptr noundef @.str.668, i64 noundef %62, i32 noundef 0)
  %63 = load ptr, ptr %5, align 8, !tbaa !28
  %64 = load ptr, ptr %7, align 8, !tbaa !660
  %65 = getelementptr inbounds nuw %struct.AVIAMFParamDefinition, ptr %64, i32 0, i32 6
  %66 = load i32, ptr %65, align 4, !tbaa !665
  %67 = zext i32 %66 to i64
  call void @avtext_print_integer(ptr noundef %63, ptr noundef @.str.669, i64 noundef %67, i32 noundef 0)
  %68 = load ptr, ptr %5, align 8, !tbaa !28
  %69 = load ptr, ptr %7, align 8, !tbaa !660
  %70 = getelementptr inbounds nuw %struct.AVIAMFParamDefinition, ptr %69, i32 0, i32 7
  %71 = load i32, ptr %70, align 8, !tbaa !666
  %72 = zext i32 %71 to i64
  call void @avtext_print_integer(ptr noundef %68, ptr noundef @.str.339, i64 noundef %72, i32 noundef 0)
  %73 = load ptr, ptr %5, align 8, !tbaa !28
  %74 = load ptr, ptr %7, align 8, !tbaa !660
  %75 = getelementptr inbounds nuw %struct.AVIAMFParamDefinition, ptr %74, i32 0, i32 8
  %76 = load i32, ptr %75, align 4, !tbaa !667
  %77 = zext i32 %76 to i64
  call void @avtext_print_integer(ptr noundef %73, ptr noundef @.str.670, i64 noundef %77, i32 noundef 0)
  %78 = load ptr, ptr %7, align 8, !tbaa !660
  %79 = getelementptr inbounds nuw %struct.AVIAMFParamDefinition, ptr %78, i32 0, i32 3
  %80 = load i32, ptr %79, align 8, !tbaa !661
  %81 = icmp ugt i32 %80, 0
  br i1 %81, label %82, label %85

82:                                               ; preds = %42
  %83 = load ptr, ptr %5, align 8, !tbaa !28
  %84 = load i32, ptr %9, align 4, !tbaa !11
  call void @avtext_print_section_header(ptr noundef %83, ptr noundef null, i32 noundef %84)
  br label %85

85:                                               ; preds = %82, %42
  call void @llvm.lifetime.start.p0(i64 4, ptr %11) #14
  store i32 0, ptr %11, align 4, !tbaa !11
  br label %86

86:                                               ; preds = %157, %85
  %87 = load i32, ptr %11, align 4, !tbaa !11
  %88 = load ptr, ptr %7, align 8, !tbaa !660
  %89 = getelementptr inbounds nuw %struct.AVIAMFParamDefinition, ptr %88, i32 0, i32 3
  %90 = load i32, ptr %89, align 8, !tbaa !661
  %91 = icmp ult i32 %87, %90
  br i1 %91, label %93, label %92

92:                                               ; preds = %86
  store i32 6, ptr %12, align 4
  call void @llvm.lifetime.end.p0(i64 4, ptr %11) #14
  br label %160

93:                                               ; preds = %86
  call void @llvm.lifetime.start.p0(i64 8, ptr %13) #14
  %94 = load ptr, ptr %7, align 8, !tbaa !660
  %95 = load i32, ptr %11, align 4, !tbaa !11
  %96 = call ptr @av_iamf_param_definition_get_subblock(ptr noundef %94, i32 noundef %95)
  store ptr %96, ptr %13, align 8, !tbaa !37
  %97 = load ptr, ptr %7, align 8, !tbaa !660
  %98 = getelementptr inbounds nuw %struct.AVIAMFParamDefinition, ptr %97, i32 0, i32 4
  %99 = load i32, ptr %98, align 4, !tbaa !663
  switch i32 %99, label %156 [
    i32 0, label %100
    i32 1, label %131
    i32 2, label %146
  ]

100:                                              ; preds = %93
  call void @llvm.lifetime.start.p0(i64 8, ptr %14) #14
  %101 = load ptr, ptr %13, align 8, !tbaa !37
  store ptr %101, ptr %14, align 8, !tbaa !668
  %102 = load ptr, ptr %5, align 8, !tbaa !28
  %103 = load i32, ptr %10, align 4, !tbaa !11
  call void @avtext_print_section_header(ptr noundef %102, ptr noundef @.str.671, i32 noundef %103)
  %104 = load ptr, ptr %5, align 8, !tbaa !28
  %105 = load ptr, ptr %14, align 8, !tbaa !668
  %106 = getelementptr inbounds nuw %struct.AVIAMFMixGain, ptr %105, i32 0, i32 1
  %107 = load i32, ptr %106, align 8, !tbaa !670
  %108 = zext i32 %107 to i64
  call void @avtext_print_integer(ptr noundef %104, ptr noundef @.str.672, i64 noundef %108, i32 noundef 0)
  %109 = load ptr, ptr %5, align 8, !tbaa !28
  %110 = load ptr, ptr %14, align 8, !tbaa !668
  %111 = getelementptr inbounds nuw %struct.AVIAMFMixGain, ptr %110, i32 0, i32 2
  %112 = load i32, ptr %111, align 4, !tbaa !672
  %113 = zext i32 %112 to i64
  call void @avtext_print_integer(ptr noundef %109, ptr noundef @.str.673, i64 noundef %113, i32 noundef 0)
  %114 = load ptr, ptr %5, align 8, !tbaa !28
  %115 = load ptr, ptr %14, align 8, !tbaa !668
  %116 = getelementptr inbounds nuw %struct.AVIAMFMixGain, ptr %115, i32 0, i32 3
  %117 = load i64, ptr %116, align 8
  call void @avtext_print_rational(ptr noundef %114, ptr noundef @.str.674, i64 %117, i8 noundef signext 47)
  %118 = load ptr, ptr %5, align 8, !tbaa !28
  %119 = load ptr, ptr %14, align 8, !tbaa !668
  %120 = getelementptr inbounds nuw %struct.AVIAMFMixGain, ptr %119, i32 0, i32 4
  %121 = load i64, ptr %120, align 8
  call void @avtext_print_rational(ptr noundef %118, ptr noundef @.str.675, i64 %121, i8 noundef signext 47)
  %122 = load ptr, ptr %5, align 8, !tbaa !28
  %123 = load ptr, ptr %14, align 8, !tbaa !668
  %124 = getelementptr inbounds nuw %struct.AVIAMFMixGain, ptr %123, i32 0, i32 5
  %125 = load i64, ptr %124, align 8
  call void @avtext_print_rational(ptr noundef %122, ptr noundef @.str.676, i64 %125, i8 noundef signext 47)
  %126 = load ptr, ptr %5, align 8, !tbaa !28
  %127 = load ptr, ptr %14, align 8, !tbaa !668
  %128 = getelementptr inbounds nuw %struct.AVIAMFMixGain, ptr %127, i32 0, i32 6
  %129 = load i64, ptr %128, align 8
  call void @avtext_print_rational(ptr noundef %126, ptr noundef @.str.677, i64 %129, i8 noundef signext 47)
  %130 = load ptr, ptr %5, align 8, !tbaa !28
  call void @avtext_print_section_footer(ptr noundef %130)
  store i32 9, ptr %12, align 4
  call void @llvm.lifetime.end.p0(i64 8, ptr %14) #14
  br label %156

131:                                              ; preds = %93
  call void @llvm.lifetime.start.p0(i64 8, ptr %15) #14
  %132 = load ptr, ptr %13, align 8, !tbaa !37
  store ptr %132, ptr %15, align 8, !tbaa !673
  %133 = load ptr, ptr %5, align 8, !tbaa !28
  %134 = load i32, ptr %10, align 4, !tbaa !11
  call void @avtext_print_section_header(ptr noundef %133, ptr noundef @.str.678, i32 noundef %134)
  %135 = load ptr, ptr %5, align 8, !tbaa !28
  %136 = load ptr, ptr %15, align 8, !tbaa !673
  %137 = getelementptr inbounds nuw %struct.AVIAMFDemixingInfo, ptr %136, i32 0, i32 1
  %138 = load i32, ptr %137, align 8, !tbaa !675
  %139 = zext i32 %138 to i64
  call void @avtext_print_integer(ptr noundef %135, ptr noundef @.str.672, i64 noundef %139, i32 noundef 0)
  %140 = load ptr, ptr %5, align 8, !tbaa !28
  %141 = load ptr, ptr %15, align 8, !tbaa !673
  %142 = getelementptr inbounds nuw %struct.AVIAMFDemixingInfo, ptr %141, i32 0, i32 2
  %143 = load i32, ptr %142, align 4, !tbaa !677
  %144 = zext i32 %143 to i64
  call void @avtext_print_integer(ptr noundef %140, ptr noundef @.str.679, i64 noundef %144, i32 noundef 0)
  %145 = load ptr, ptr %5, align 8, !tbaa !28
  call void @avtext_print_section_footer(ptr noundef %145)
  store i32 9, ptr %12, align 4
  call void @llvm.lifetime.end.p0(i64 8, ptr %15) #14
  br label %156

146:                                              ; preds = %93
  call void @llvm.lifetime.start.p0(i64 8, ptr %16) #14
  %147 = load ptr, ptr %13, align 8, !tbaa !37
  store ptr %147, ptr %16, align 8, !tbaa !678
  %148 = load ptr, ptr %5, align 8, !tbaa !28
  %149 = load i32, ptr %10, align 4, !tbaa !11
  call void @avtext_print_section_header(ptr noundef %148, ptr noundef @.str.680, i32 noundef %149)
  %150 = load ptr, ptr %5, align 8, !tbaa !28
  %151 = load ptr, ptr %16, align 8, !tbaa !678
  %152 = getelementptr inbounds nuw %struct.AVIAMFReconGain, ptr %151, i32 0, i32 1
  %153 = load i32, ptr %152, align 8, !tbaa !680
  %154 = zext i32 %153 to i64
  call void @avtext_print_integer(ptr noundef %150, ptr noundef @.str.672, i64 noundef %154, i32 noundef 0)
  %155 = load ptr, ptr %5, align 8, !tbaa !28
  call void @avtext_print_section_footer(ptr noundef %155)
  store i32 9, ptr %12, align 4
  call void @llvm.lifetime.end.p0(i64 8, ptr %16) #14
  br label %156

156:                                              ; preds = %93, %146, %131, %100
  call void @llvm.lifetime.end.p0(i64 8, ptr %13) #14
  br label %157

157:                                              ; preds = %156
  %158 = load i32, ptr %11, align 4, !tbaa !11
  %159 = add nsw i32 %158, 1
  store i32 %159, ptr %11, align 4, !tbaa !11
  br label %86, !llvm.loop !682

160:                                              ; preds = %92
  %161 = load ptr, ptr %7, align 8, !tbaa !660
  %162 = getelementptr inbounds nuw %struct.AVIAMFParamDefinition, ptr %161, i32 0, i32 3
  %163 = load i32, ptr %162, align 8, !tbaa !661
  %164 = icmp ugt i32 %163, 0
  br i1 %164, label %165, label %167

165:                                              ; preds = %160
  %166 = load ptr, ptr %5, align 8, !tbaa !28
  call void @avtext_print_section_footer(ptr noundef %166)
  br label %167

167:                                              ; preds = %165, %160
  %168 = load ptr, ptr %5, align 8, !tbaa !28
  call void @avtext_print_section_footer(ptr noundef %168)
  call void @llvm.lifetime.end.p0(i64 4, ptr %10) #14
  call void @llvm.lifetime.end.p0(i64 4, ptr %9) #14
  ret void
}