; Function Attrs: nounwind uwtable
define internal fastcc void @print_iamf_param_definition(ptr noundef %0, ptr noundef %1, ptr noundef nonnull readonly captures(none) %2, i32 noundef range(i32 46, 51) %3) unnamed_addr #0 {
  %5 = zext nneg i32 %3 to i64
  %6 = getelementptr inbounds nuw [66 x %struct.AVTextFormatSection], ptr @sections, i64 0, i64 %5, i32 3
  %7 = load i32, ptr %6, align 4, !tbaa !11
  %.not = icmp eq i32 %7, -1
  br i1 %.not, label %8, label %9

8:                                                ; preds = %4
  tail call void (ptr, i32, ptr, ...) @av_log(ptr noundef null, i32 noundef 0, ptr noundef nonnull @.str.175, ptr noundef nonnull @.str.664, ptr noundef nonnull @.str.177, i32 noundef 2012) #20
  tail call void @abort() #23
  unreachable

9:                                                ; preds = %4
  %10 = zext i32 %7 to i64
  %11 = getelementptr inbounds nuw [66 x %struct.AVTextFormatSection], ptr @sections, i64 0, i64 %10, i32 3
  %12 = load i32, ptr %11, align 4, !tbaa !11
  %.not64 = icmp eq i32 %12, -1
  br i1 %.not64, label %13, label %14

13:                                               ; preds = %9
  tail call void (ptr, i32, ptr, ...) @av_log(ptr noundef null, i32 noundef 0, ptr noundef nonnull @.str.175, ptr noundef nonnull @.str.665, ptr noundef nonnull @.str.177, i32 noundef 2014) #20
  tail call void @abort() #23
  unreachable

14:                                               ; preds = %9
  tail call void @avtext_print_section_header(ptr noundef %0, ptr noundef nonnull @.str.666, i32 noundef %3) #20
  %15 = tail call i32 @avtext_print_string(ptr noundef %0, ptr noundef nonnull @.str.285, ptr noundef %1, i32 noundef 0) #20
  %16 = getelementptr inbounds nuw i8, ptr %2, i64 24
  %17 = load i32, ptr %16, align 8, !tbaa !591
  %18 = zext i32 %17 to i64
  tail call void @avtext_print_integer(ptr noundef %0, ptr noundef nonnull @.str.667, i64 noundef %18, i32 noundef 0) #20
  %19 = getelementptr inbounds nuw i8, ptr %2, i64 28
  %20 = load i32, ptr %19, align 4, !tbaa !593
  %21 = zext i32 %20 to i64
  tail call void @avtext_print_integer(ptr noundef %0, ptr noundef nonnull @.str.351, i64 noundef %21, i32 noundef 0) #20
  %22 = getelementptr inbounds nuw i8, ptr %2, i64 32
  %23 = load i32, ptr %22, align 8, !tbaa !594
  %24 = zext i32 %23 to i64
  tail call void @avtext_print_integer(ptr noundef %0, ptr noundef nonnull @.str.668, i64 noundef %24, i32 noundef 0) #20
  %25 = getelementptr inbounds nuw i8, ptr %2, i64 36
  %26 = load i32, ptr %25, align 4, !tbaa !595
  %27 = zext i32 %26 to i64
  tail call void @avtext_print_integer(ptr noundef %0, ptr noundef nonnull @.str.669, i64 noundef %27, i32 noundef 0) #20
  %28 = getelementptr inbounds nuw i8, ptr %2, i64 40
  %29 = load i32, ptr %28, align 8, !tbaa !596
  %30 = zext i32 %29 to i64
  tail call void @avtext_print_integer(ptr noundef %0, ptr noundef nonnull @.str.339, i64 noundef %30, i32 noundef 0) #20
  %31 = getelementptr inbounds nuw i8, ptr %2, i64 44
  %32 = load i32, ptr %31, align 4, !tbaa !597
  %33 = zext i32 %32 to i64
  tail call void @avtext_print_integer(ptr noundef %0, ptr noundef nonnull @.str.670, i64 noundef %33, i32 noundef 0) #20
  %34 = load i32, ptr %16, align 8, !tbaa !591
  %.not65 = icmp eq i32 %34, 0
  br i1 %.not65, label %._crit_edge.thread, label %35

35:                                               ; preds = %14
  tail call void @avtext_print_section_header(ptr noundef %0, ptr noundef null, i32 noundef %7) #20
  %.pre = load i32, ptr %16, align 8, !tbaa !591
  %36 = icmp eq i32 %.pre, 0
  br i1 %36, label %._crit_edge.thread, label %av_iamf_param_definition_get_subblock.exit.lr.ph

av_iamf_param_definition_get_subblock.exit.lr.ph: ; preds = %35
  %37 = getelementptr inbounds nuw i8, ptr %2, i64 8
  %38 = getelementptr inbounds nuw i8, ptr %2, i64 16
  br label %av_iamf_param_definition_get_subblock.exit

._crit_edge:                                      ; preds = %72
  %39 = icmp eq i32 %73, 0
  br i1 %39, label %._crit_edge.thread, label %76

av_iamf_param_definition_get_subblock.exit:       ; preds = %av_iamf_param_definition_get_subblock.exit.lr.ph, %72
  %indvars.iv = phi i64 [ 0, %av_iamf_param_definition_get_subblock.exit.lr.ph ], [ %indvars.iv.next, %72 ]
  %40 = load i64, ptr %37, align 8, !tbaa !598
  %41 = getelementptr inbounds nuw i8, ptr %2, i64 %40
  %42 = load i64, ptr %38, align 8, !tbaa !599
  %43 = mul i64 %42, %indvars.iv
  %44 = getelementptr inbounds nuw i8, ptr %41, i64 %43
  %45 = load i32, ptr %19, align 4, !tbaa !593
  switch i32 %45, label %72 [
    i32 0, label %46
    i32 1, label %61
    i32 2, label %68
  ]

46:                                               ; preds = %av_iamf_param_definition_get_subblock.exit
  tail call void @avtext_print_section_header(ptr noundef %0, ptr noundef nonnull @.str.671, i32 noundef %12) #20
  %47 = getelementptr inbounds nuw i8, ptr %44, i64 8
  %48 = load i32, ptr %47, align 8, !tbaa !600
  %49 = zext i32 %48 to i64
  tail call void @avtext_print_integer(ptr noundef %0, ptr noundef nonnull @.str.672, i64 noundef %49, i32 noundef 0) #20
  %50 = getelementptr inbounds nuw i8, ptr %44, i64 12
  %51 = load i32, ptr %50, align 4, !tbaa !602
  %52 = zext i32 %51 to i64
  tail call void @avtext_print_integer(ptr noundef %0, ptr noundef nonnull @.str.673, i64 noundef %52, i32 noundef 0) #20
  %53 = getelementptr inbounds nuw i8, ptr %44, i64 16
  %54 = load i64, ptr %53, align 8
  tail call void @avtext_print_rational(ptr noundef %0, ptr noundef nonnull @.str.674, i64 %54, i8 noundef signext 47) #20
  %55 = getelementptr inbounds nuw i8, ptr %44, i64 24
  %56 = load i64, ptr %55, align 8
  tail call void @avtext_print_rational(ptr noundef %0, ptr noundef nonnull @.str.675, i64 %56, i8 noundef signext 47) #20
  %57 = getelementptr inbounds nuw i8, ptr %44, i64 32
  %58 = load i64, ptr %57, align 8
  tail call void @avtext_print_rational(ptr noundef %0, ptr noundef nonnull @.str.676, i64 %58, i8 noundef signext 47) #20
  %59 = getelementptr inbounds nuw i8, ptr %44, i64 40
  %60 = load i64, ptr %59, align 8
  tail call void @avtext_print_rational(ptr noundef %0, ptr noundef nonnull @.str.677, i64 %60, i8 noundef signext 47) #20
  br label %.sink.split

61:                                               ; preds = %av_iamf_param_definition_get_subblock.exit
  tail call void @avtext_print_section_header(ptr noundef %0, ptr noundef nonnull @.str.678, i32 noundef %12) #20
  %62 = getelementptr inbounds nuw i8, ptr %44, i64 8
  %63 = load i32, ptr %62, align 8, !tbaa !603
  %64 = zext i32 %63 to i64
  tail call void @avtext_print_integer(ptr noundef %0, ptr noundef nonnull @.str.672, i64 noundef %64, i32 noundef 0) #20
  %65 = getelementptr inbounds nuw i8, ptr %44, i64 12
  %66 = load i32, ptr %65, align 4, !tbaa !605
  %67 = zext i32 %66 to i64
  tail call void @avtext_print_integer(ptr noundef %0, ptr noundef nonnull @.str.679, i64 noundef %67, i32 noundef 0) #20
  br label %.sink.split

68:                                               ; preds = %av_iamf_param_definition_get_subblock.exit
  tail call void @avtext_print_section_header(ptr noundef %0, ptr noundef nonnull @.str.680, i32 noundef %12) #20
  %69 = getelementptr inbounds nuw i8, ptr %44, i64 8
  %70 = load i32, ptr %69, align 8, !tbaa !606
  %71 = zext i32 %70 to i64
  tail call void @avtext_print_integer(ptr noundef %0, ptr noundef nonnull @.str.672, i64 noundef %71, i32 noundef 0) #20
  br label %.sink.split

.sink.split:                                      ; preds = %46, %61, %68
  tail call void @avtext_print_section_footer(ptr noundef %0) #20
  br label %72

72:                                               ; preds = %.sink.split, %av_iamf_param_definition_get_subblock.exit
  %indvars.iv.next = add nuw nsw i64 %indvars.iv, 1
  %73 = load i32, ptr %16, align 8, !tbaa !591
  %74 = zext i32 %73 to i64
  %75 = icmp samesign ult i64 %indvars.iv.next, %74
  br i1 %75, label %av_iamf_param_definition_get_subblock.exit, label %._crit_edge, !llvm.loop !608

76:                                               ; preds = %._crit_edge
  tail call void @avtext_print_section_footer(ptr noundef %0) #20
  br label %._crit_edge.thread

._crit_edge.thread:                               ; preds = %14, %35, %76, %._crit_edge
  tail call void @avtext_print_section_footer(ptr noundef %0) #20
  ret void
}